target datalayout = "e-m:e-p270:32:32-p271:32:32-p272:64:64-i64:64-i128:128-f80:128-n8:16:32:64-S128"
target triple = "x86_64-pc-linux-gnu"

%struct._object = type { %union.anon, ptr }
%union.anon = type { i64 }
%struct._typeobject = type { %struct.PyVarObject, ptr, i64, i64, ptr, i64, ptr, ptr, ptr, ptr, ptr, ptr, ptr, ptr, ptr, ptr, ptr, ptr, ptr, i64, ptr, ptr, ptr, ptr, i64, ptr, ptr, ptr, ptr, ptr, ptr, ptr, ptr, ptr, i64, ptr, ptr, ptr, ptr, ptr, ptr, ptr, ptr, ptr, ptr, ptr, i32, ptr, ptr, i8, i16 }
%struct.PyVarObject = type { %struct._object, i64 }

@.str.1 = private unnamed_addr constant [9 x i8] c"heappush\00", align 1
@.str.10 = private unnamed_addr constant [11 x i8] c"argument 1\00", align 1
@.str.11 = private unnamed_addr constant [5 x i8] c"list\00", align 1
@_Py_NoneStruct = external global %struct._object, align 8

; Function Attrs: inlinehint nounwind uwtable
define internal i64 @Py_SIZE(ptr noundef %0) #3 {
  %2 = alloca ptr, align 8
  store ptr %0, ptr %2, align 8, !tbaa !3
  %3 = load ptr, ptr %2, align 8, !tbaa !3
  %4 = getelementptr inbounds nuw %struct.PyVarObject, ptr %3, i32 0, i32 1
  %5 = load i64, ptr %4, align 8, !tbaa !32
  ret i64 %5
}

; Function Attrs: inlinehint nounwind uwtable
define internal i64 @PyList_GET_SIZE(ptr noundef %0) #3 {
  %2 = alloca ptr, align 8
  %3 = alloca ptr, align 8
  store ptr %0, ptr %2, align 8, !tbaa !3
  call void @llvm.lifetime.start.p0(i64 8, ptr %3) #5
  %4 = load ptr, ptr %2, align 8, !tbaa !3
  store ptr %4, ptr %3, align 8, !tbaa !25
  %5 = load ptr, ptr %3, align 8, !tbaa !25
  %6 = call i64 @Py_SIZE(ptr noundef %5)
  call void @llvm.lifetime.end.p0(i64 8, ptr %3) #5
  ret i64 %6
}

; Function Attrs: nounwind uwtable
define internal ptr @_heapq_heappush_impl(ptr noundef %0, ptr noundef %1, ptr noundef %2) #0 {
  %4 = alloca ptr, align 8
  %5 = alloca ptr, align 8
  %6 = alloca ptr, align 8
  %7 = alloca ptr, align 8
  store ptr %0, ptr %5, align 8, !tbaa !3
  store ptr %1, ptr %6, align 8, !tbaa !3
  store ptr %2, ptr %7, align 8, !tbaa !3
  %8 = load ptr, ptr %6, align 8, !tbaa !3
  %9 = load ptr, ptr %7, align 8, !tbaa !3
  %10 = call i32 @PyList_Append(ptr noundef %8, ptr noundef %9)
  %11 = icmp ne i32 %10, 0
  br i1 %11, label %12, label %13

12:                                               ; preds = %3
  store ptr null, ptr %4, align 8
  br label %22

13:                                               ; preds = %3
  %14 = load ptr, ptr %6, align 8, !tbaa !3
  %15 = load ptr, ptr %6, align 8, !tbaa !3
  %16 = call i64 @PyList_GET_SIZE(ptr noundef %15)
  %17 = sub i64 %16, 1
  %18 = call i32 @siftdown(ptr noundef %14, i64 noundef 0, i64 noundef %17)
  %19 = icmp ne i32 %18, 0
  br i1 %19, label %20, label %21

20:                                               ; preds = %13
  store ptr null, ptr %4, align 8
  br label %22

21:                                               ; preds = %13
  store ptr @_Py_NoneStruct, ptr %4, align 8
  br label %22

22:                                               ; preds = %21, %20, %12
  %23 = load ptr, ptr %4, align 8
  ret ptr %23
}

; Function Attrs: inlinehint nounwind uwtable
define internal i32 @PyType_HasFeature(ptr noundef %0, i64 noundef %1) #3 {
  %3 = alloca ptr, align 8
  %4 = alloca i64, align 8
  %5 = alloca i64, align 8
  store ptr %0, ptr %3, align 8, !tbaa !12
  store i64 %1, ptr %4, align 8, !tbaa !10
  call void @llvm.lifetime.start.p0(i64 8, ptr %5) #5
  %6 = load ptr, ptr %3, align 8, !tbaa !12
  %7 = getelementptr inbounds nuw %struct._typeobject, ptr %6, i32 0, i32 19
  %8 = load i64, ptr %7, align 8, !tbaa !14
  store i64 %8, ptr %5, align 8, !tbaa !10
  %9 = load i64, ptr %5, align 8, !tbaa !10
  %10 = load i64, ptr %4, align 8, !tbaa !10
  %11 = and i64 %9, %10
  %12 = icmp ne i64 %11, 0
  %13 = zext i1 %12 to i32
  call void @llvm.lifetime.end.p0(i64 8, ptr %5) #5
  ret i32 %13
}

; Function Attrs: inlinehint nounwind uwtable
define internal ptr @_Py_TYPE(ptr noundef %0) #3 {
  %2 = alloca ptr, align 8
  store ptr %0, ptr %2, align 8, !tbaa !3
  %3 = load ptr, ptr %2, align 8, !tbaa !3
  %4 = getelementptr inbounds nuw %struct._object, ptr %3, i32 0, i32 1
  %5 = load ptr, ptr %4, align 8, !tbaa !24
  ret ptr %5
}

; Function Attrs: nounwind uwtable
define internal ptr @_heapq_heappush(ptr noundef %0, ptr noundef %1, i64 noundef %2) #0 {
  %4 = alloca ptr, align 8
  %5 = alloca ptr, align 8
  %6 = alloca i64, align 8
  %7 = alloca ptr, align 8
  %8 = alloca ptr, align 8
  %9 = alloca ptr, align 8
  store ptr %0, ptr %4, align 8, !tbaa !3
  store ptr %1, ptr %5, align 8, !tbaa !8
  store i64 %2, ptr %6, align 8, !tbaa !10
  call void @llvm.lifetime.start.p0(i64 8, ptr %7) #5
  store ptr null, ptr %7, align 8, !tbaa !3
  call void @llvm.lifetime.start.p0(i64 8, ptr %8) #5
  call void @llvm.lifetime.start.p0(i64 8, ptr %9) #5
  %10 = load i64, ptr %6, align 8, !tbaa !10
  %11 = icmp sle i64 2, %10
  br i1 %11, label %12, label %15

12:                                               ; preds = %3
  %13 = load i64, ptr %6, align 8, !tbaa !10
  %14 = icmp sle i64 %13, 2
  br i1 %14, label %20, label %15

15:                                               ; preds = %12, %3
  %16 = load i64, ptr %6, align 8, !tbaa !10
  %17 = call i32 @_PyArg_CheckPositional(ptr noundef @.str.1, i64 noundef %16, i64 noundef 2, i64 noundef 2)
  %18 = icmp ne i32 %17, 0
  br i1 %18, label %20, label %19

19:                                               ; preds = %15
  br label %42

20:                                               ; preds = %15, %12
  %21 = load ptr, ptr %5, align 8, !tbaa !8
  %22 = getelementptr ptr, ptr %21, i64 0
  %23 = load ptr, ptr %22, align 8, !tbaa !3
  %24 = call ptr @_Py_TYPE(ptr noundef %23)
  %25 = call i32 @PyType_HasFeature(ptr noundef %24, i64 noundef 33554432)
  %26 = icmp ne i32 %25, 0
  br i1 %26, label %31, label %27

27:                                               ; preds = %20
  %28 = load ptr, ptr %5, align 8, !tbaa !8
  %29 = getelementptr ptr, ptr %28, i64 0
  %30 = load ptr, ptr %29, align 8, !tbaa !3
  call void @_PyArg_BadArgument(ptr noundef @.str.1, ptr noundef @.str.10, ptr noundef @.str.11, ptr noundef %30)
  br label %42

31:                                               ; preds = %20
  %32 = load ptr, ptr %5, align 8, !tbaa !8
  %33 = getelementptr ptr, ptr %32, i64 0
  %34 = load ptr, ptr %33, align 8, !tbaa !3
  store ptr %34, ptr %8, align 8, !tbaa !3
  %35 = load ptr, ptr %5, align 8, !tbaa !8
  %36 = getelementptr ptr, ptr %35, i64 1
  %37 = load ptr, ptr %36, align 8, !tbaa !3
  store ptr %37, ptr %9, align 8, !tbaa !3
  %38 = load ptr, ptr %4, align 8, !tbaa !3
  %39 = load ptr, ptr %8, align 8, !tbaa !3
  %40 = load ptr, ptr %9, align 8, !tbaa !3
  %41 = call ptr @_heapq_heappush_impl(ptr noundef %38, ptr noundef %39, ptr noundef %40)
  store ptr %41, ptr %7, align 8, !tbaa !3
  br label %42

42:                                               ; preds = %31, %27, %19
  %43 = load ptr, ptr %7, align 8, !tbaa !3
  call void @llvm.lifetime.end.p0(i64 8, ptr %9) #5
  call void @llvm.lifetime.end.p0(i64 8, ptr %8) #5
  call void @llvm.lifetime.end.p0(i64 8, ptr %7) #5
  ret ptr %43
}