; Function Attrs: nounwind uwtable
define internal ptr @_heapq_heappush(ptr readnone captures(none) %0, ptr noundef readonly captures(none) %1, i64 noundef %2) #0 {
  %or.cond = icmp eq i64 %2, 2
  br i1 %or.cond, label %6, label %4

4:                                                ; preds = %3
  %5 = tail call i32 @_PyArg_CheckPositional(ptr noundef nonnull @.str.1, i64 noundef %2, i64 noundef 2, i64 noundef 2) #2
  %.not = icmp eq i32 %5, 0
  br i1 %.not, label %_heapq_heappush_impl.exit, label %6

6:                                                ; preds = %3, %4
  %7 = load ptr, ptr %1, align 8, !tbaa !3
  %8 = getelementptr i8, ptr %7, i64 8
  %.val = load ptr, ptr %8, align 8, !tbaa !8
  %9 = getelementptr i8, ptr %.val, i64 168
  %.val12 = load i64, ptr %9, align 8, !tbaa !11
  %10 = and i64 %.val12, 33554432
  %.not11 = icmp eq i64 %10, 0
  br i1 %.not11, label %11, label %12

11:                                               ; preds = %6
  tail call void @_PyArg_BadArgument(ptr noundef nonnull @.str.1, ptr noundef nonnull @.str.10, ptr noundef nonnull @.str.11, ptr noundef nonnull %7) #2
  br label %_heapq_heappush_impl.exit

12:                                               ; preds = %6
  %13 = getelementptr i8, ptr %1, i64 8
  %14 = load ptr, ptr %13, align 8, !tbaa !3
  %15 = tail call i32 @PyList_Append(ptr noundef nonnull %7, ptr noundef %14) #2
  %.not.i = icmp eq i32 %15, 0
  br i1 %.not.i, label %16, label %_heapq_heappush_impl.exit

16:                                               ; preds = %12
  %17 = getelementptr i8, ptr %7, i64 16
  %.val.i = load i64, ptr %17, align 8, !tbaa !21
  %18 = add i64 %.val.i, -1
  %19 = tail call fastcc i32 @siftdown(ptr noundef nonnull %7, i64 noundef 0, i64 noundef %18)
  %.not5.i = icmp eq i32 %19, 0
  %_Py_NoneStruct..i = select i1 %.not5.i, ptr @_Py_NoneStruct, ptr null
  br label %_heapq_heappush_impl.exit

_heapq_heappush_impl.exit:                        ; preds = %16, %12, %4, %11
  %.0 = phi ptr [ null, %11 ], [ null, %4 ], [ null, %12 ], [ %_Py_NoneStruct..i, %16 ]
  ret ptr %.0
}